target datalayout = "e-m:e-p270:32:32-p271:32:32-p272:64:64-i64:64-i128:128-f80:128-n8:16:32:64-S128"
target triple = "x86_64-pc-linux-gnu"

%class.ExpressionVariable = type { %class.Expression, ptr, ptr }
%class.Expression = type { ptr, i32, i32, ptr }
%class.Variable = type { ptr, %"class.std::vector.28", %"class.std::__cxx11::basic_string", ptr, ptr, i8, i8, i8, i8, i8, i8, ptr, i8, %class.CVQualifiers }
%"class.std::vector.28" = type { %"struct.std::_Vector_base.29" }
%"struct.std::_Vector_base.29" = type { %"struct.std::_Vector_base<Variable *, std::allocator<Variable *>>::_Vector_impl" }
%"struct.std::_Vector_base<Variable *, std::allocator<Variable *>>::_Vector_impl" = type { %"struct.std::_Vector_base<Variable *, std::allocator<Variable *>>::_Vector_impl_data" }
%"struct.std::_Vector_base<Variable *, std::allocator<Variable *>>::_Vector_impl_data" = type { ptr, ptr, ptr }
%"class.std::__cxx11::basic_string" = type { %"struct.std::__cxx11::basic_string<char>::_Alloc_hider", i64, %union.anon }
%"struct.std::__cxx11::basic_string<char>::_Alloc_hider" = type { ptr }
%union.anon = type { i64, [8 x i8] }
%class.CVQualifiers = type { ptr, i8, i8, %"class.std::vector.36", %"class.std::vector.36" }
%"class.std::vector.36" = type { %"struct.std::_Bvector_base" }
%"struct.std::_Bvector_base" = type { %"struct.std::_Bvector_base<std::allocator<bool>>::_Bvector_impl" }
%"struct.std::_Bvector_base<std::allocator<bool>>::_Bvector_impl" = type { %"struct.std::_Bvector_base<std::allocator<bool>>::_Bvector_impl_data" }
%"struct.std::_Bvector_base<std::allocator<bool>>::_Bvector_impl_data" = type { %"struct.std::_Bit_iterator", %"struct.std::_Bit_iterator", ptr }
%"struct.std::_Bit_iterator" = type { %"struct.std::_Bit_iterator_base.base", [4 x i8] }
%"struct.std::_Bit_iterator_base.base" = type <{ ptr, i32 }>

@.str.4 = private unnamed_addr constant [49 x i8] c" with ExpressionVariable. reason invalid pointer\00", align 1
@.str.5 = private unnamed_addr constant [62 x i8] c" with ExpressionVariable. reason invalid read through pointer\00", align 1
@.str.6 = private unnamed_addr constant [42 x i8] c" with ExpressionVariable. reason bitfield\00", align 1
@.str.7 = private unnamed_addr constant [46 x i8] c" with ExpressionVariable. reason invalid read\00", align 1

; Function Attrs: mustprogress uwtable
define linkonce_odr dso_local void @_ZStplIcSt11char_traitsIcESaIcEENSt7__cxx1112basic_stringIT_T0_T1_EERKS8_PKS5_(ptr dead_on_unwind noalias writable sret(%"class.std::__cxx11::basic_string") align 8 %0, ptr noundef nonnull align 8 dereferenceable(32) %1, ptr noundef %2) #4 comdat personality ptr @__gxx_personality_v0 {
  %4 = alloca ptr, align 8
  %5 = alloca ptr, align 8
  %6 = alloca ptr, align 8
  %7 = alloca i1, align 1
  %8 = alloca ptr, align 8
  %9 = alloca i32, align 4
  store ptr %0, ptr %4, align 8
  store ptr %1, ptr %5, align 8
  store ptr %2, ptr %6, align 8
  store i1 false, ptr %7, align 1
  %10 = load ptr, ptr %5, align 8
  call void @_ZNSt7__cxx1112basic_stringIcSt11char_traitsIcESaIcEEC1ERKS4_(ptr noundef nonnull align 8 dereferenceable(32) %0, ptr noundef nonnull align 8 dereferenceable(32) %10)
  %11 = load ptr, ptr %6, align 8
  %12 = invoke noundef nonnull align 8 dereferenceable(32) ptr @_ZNSt7__cxx1112basic_stringIcSt11char_traitsIcESaIcEE6appendEPKc(ptr noundef nonnull align 8 dereferenceable(32) %0, ptr noundef %11)
          to label %13 unwind label %15

13:                                               ; preds = %3
  store i1 true, ptr %7, align 1
  %14 = load i1, ptr %7, align 1
  br i1 %14, label %20, label %19

15:                                               ; preds = %3
  %16 = landingpad { ptr, i32 }
          cleanup
  %17 = extractvalue { ptr, i32 } %16, 0
  store ptr %17, ptr %8, align 8
  %18 = extractvalue { ptr, i32 } %16, 1
  store i32 %18, ptr %9, align 4
  call void @_ZNSt7__cxx1112basic_stringIcSt11char_traitsIcESaIcEED1Ev(ptr noundef nonnull align 8 dereferenceable(32) %0) #3
  br label %21

19:                                               ; preds = %13
  call void @_ZNSt7__cxx1112basic_stringIcSt11char_traitsIcESaIcEED1Ev(ptr noundef nonnull align 8 dereferenceable(32) %0) #3
  br label %20

20:                                               ; preds = %19, %13
  ret void

21:                                               ; preds = %15
  %22 = load ptr, ptr %8, align 8
  %23 = load i32, ptr %9, align 4
  %24 = insertvalue { ptr, i32 } poison, ptr %22, 0
  %25 = insertvalue { ptr, i32 } %24, i32 %23, 1
  resume { ptr, i32 } %25
}

; Function Attrs: mustprogress nounwind uwtable
define linkonce_odr dso_local noundef ptr @_ZNK18ExpressionVariable7get_varEv(ptr noundef nonnull align 8 dereferenceable(40) %0) #5 comdat align 2 {
  %2 = alloca ptr, align 8
  store ptr %0, ptr %2, align 8
  %3 = load ptr, ptr %2, align 8
  %4 = getelementptr inbounds %class.ExpressionVariable, ptr %3, i32 0, i32 1
  %5 = load ptr, ptr %4, align 8
  ret ptr %5
}

; Function Attrs: mustprogress uwtable
define dso_local noundef i32 @_ZNK18ExpressionVariable18get_indirect_levelEv(ptr noundef nonnull align 8 dereferenceable(40) %0) #4 align 2 {
  %2 = alloca ptr, align 8
  store ptr %0, ptr %2, align 8
  %3 = load ptr, ptr %2, align 8
  %4 = getelementptr inbounds %class.ExpressionVariable, ptr %3, i32 0, i32 1
  %5 = load ptr, ptr %4, align 8
  %6 = getelementptr inbounds %class.Variable, ptr %5, i32 0, i32 3
  %7 = load ptr, ptr %6, align 8
  %8 = call noundef i32 @_ZNK4Type18get_indirect_levelEv(ptr noundef nonnull align 8 dereferenceable(136) %7)
  %9 = getelementptr inbounds %class.ExpressionVariable, ptr %3, i32 0, i32 2
  %10 = load ptr, ptr %9, align 8
  %11 = call noundef i32 @_ZNK4Type18get_indirect_levelEv(ptr noundef nonnull align 8 dereferenceable(136) %10)
  %12 = sub nsw i32 %8, %11
  ret i32 %12
}

; Function Attrs: mustprogress uwtable
define dso_local noundef zeroext i1 @_ZNK18ExpressionVariable11visit_factsERSt6vectorIPK4FactSaIS3_EER9CGContext(ptr noundef nonnull align 8 dereferenceable(40) %0, ptr noundef nonnull align 8 dereferenceable(24) %1, ptr noundef nonnull align 8 dereferenceable(216) %2) unnamed_addr #4 align 2 personality ptr @__gxx_personality_v0 {
  %4 = alloca i1, align 1
  %5 = alloca ptr, align 8
  %6 = alloca ptr, align 8
  %7 = alloca ptr, align 8
  %8 = alloca i32, align 4
  %9 = alloca ptr, align 8
  %10 = alloca %"class.std::__cxx11::basic_string", align 8
  %11 = alloca ptr, align 8
  %12 = alloca i32, align 4
  %13 = alloca i8, align 1
  %14 = alloca %"class.std::__cxx11::basic_string", align 8
  %15 = alloca %"class.std::__cxx11::basic_string", align 8
  %16 = alloca i8, align 1
  %17 = alloca %"class.std::__cxx11::basic_string", align 8
  store ptr %0, ptr %5, align 8
  store ptr %1, ptr %6, align 8
  store ptr %2, ptr %7, align 8
  %18 = load ptr, ptr %5, align 8
  %19 = call noundef i32 @_ZNK18ExpressionVariable18get_indirect_levelEv(ptr noundef nonnull align 8 dereferenceable(40) %18)
  store i32 %19, ptr %8, align 4
  %20 = call noundef ptr @_ZNK18ExpressionVariable7get_varEv(ptr noundef nonnull align 8 dereferenceable(40) %18)
  store ptr %20, ptr %9, align 8
  %21 = load i32, ptr %8, align 4
  %22 = icmp sgt i32 %21, 0
  br i1 %22, label %23, label %67

23:                                               ; preds = %3
  %24 = load ptr, ptr %9, align 8
  %25 = load ptr, ptr %6, align 8
  %26 = call noundef zeroext i1 @_ZN11FactPointTo12is_valid_ptrEPK8VariableRKSt6vectorIPK4FactSaIS6_EE(ptr noundef %24, ptr noundef nonnull align 8 dereferenceable(24) %25)
  br i1 %26, label %36, label %27

27:                                               ; preds = %23
  %28 = load ptr, ptr %9, align 8
  %29 = getelementptr inbounds %class.Variable, ptr %28, i32 0, i32 2
  call void @_ZStplIcSt11char_traitsIcESaIcEENSt7__cxx1112basic_stringIT_T0_T1_EERKS8_PKS5_(ptr dead_on_unwind writable sret(%"class.std::__cxx11::basic_string") align 8 %10, ptr noundef nonnull align 8 dereferenceable(32) %29, ptr noundef @.str.4)
  %30 = invoke noundef zeroext i1 @_Z17log_analysis_failNSt7__cxx1112basic_stringIcSt11char_traitsIcESaIcEEE(ptr noundef %10)
          to label %31 unwind label %32

31:                                               ; preds = %27
  store i1 %30, ptr %4, align 1
  call void @_ZNSt7__cxx1112basic_stringIcSt11char_traitsIcESaIcEED1Ev(ptr noundef nonnull align 8 dereferenceable(32) %10) #3
  br label %105

32:                                               ; preds = %27
  %33 = landingpad { ptr, i32 }
          cleanup
  %34 = extractvalue { ptr, i32 } %33, 0
  store ptr %34, ptr %11, align 8
  %35 = extractvalue { ptr, i32 } %33, 1
  store i32 %35, ptr %12, align 4
  call void @_ZNSt7__cxx1112basic_stringIcSt11char_traitsIcESaIcEED1Ev(ptr noundef nonnull align 8 dereferenceable(32) %10) #3
  br label %107

36:                                               ; preds = %23
  %37 = load ptr, ptr %7, align 8
  %38 = load ptr, ptr %9, align 8
  %39 = load ptr, ptr %6, align 8
  %40 = call noundef zeroext i1 @_ZN9CGContext14check_read_varEPK8VariableRKSt6vectorIPK4FactSaIS6_EE(ptr noundef nonnull align 8 dereferenceable(216) %37, ptr noundef %38, ptr noundef nonnull align 8 dereferenceable(24) %39)
  br i1 %40, label %41, label %50

41:                                               ; preds = %36
  %42 = load ptr, ptr %7, align 8
  %43 = load ptr, ptr %6, align 8
  %44 = call noundef zeroext i1 @_ZN9CGContext12read_pointedEPK18ExpressionVariableRKSt6vectorIPK4FactSaIS6_EE(ptr noundef nonnull align 8 dereferenceable(216) %42, ptr noundef %18, ptr noundef nonnull align 8 dereferenceable(24) %43)
  br i1 %44, label %45, label %50

45:                                               ; preds = %41
  %46 = load ptr, ptr %7, align 8
  %47 = load ptr, ptr %9, align 8
  %48 = load i32, ptr %8, align 4
  %49 = call noundef zeroext i1 @_ZN9CGContext20check_deref_volatileEPK8Variablei(ptr noundef nonnull align 8 dereferenceable(216) %46, ptr noundef %47, i32 noundef %48)
  br label %50

50:                                               ; preds = %45, %41, %36
  %51 = phi i1 [ false, %41 ], [ false, %36 ], [ %49, %45 ]
  %52 = zext i1 %51 to i8
  store i8 %52, ptr %13, align 1
  %53 = load i8, ptr %13, align 1
  %54 = trunc i8 %53 to i1
  br i1 %54, label %64, label %55

55:                                               ; preds = %50
  %56 = load ptr, ptr %9, align 8
  %57 = getelementptr inbounds %class.Variable, ptr %56, i32 0, i32 2
  call void @_ZStplIcSt11char_traitsIcESaIcEENSt7__cxx1112basic_stringIT_T0_T1_EERKS8_PKS5_(ptr dead_on_unwind writable sret(%"class.std::__cxx11::basic_string") align 8 %14, ptr noundef nonnull align 8 dereferenceable(32) %57, ptr noundef @.str.5)
  %58 = invoke noundef zeroext i1 @_Z17log_analysis_failNSt7__cxx1112basic_stringIcSt11char_traitsIcESaIcEEE(ptr noundef %14)
          to label %59 unwind label %60

59:                                               ; preds = %55
  store i1 %58, ptr %4, align 1
  call void @_ZNSt7__cxx1112basic_stringIcSt11char_traitsIcESaIcEED1Ev(ptr noundef nonnull align 8 dereferenceable(32) %14) #3
  br label %105

60:                                               ; preds = %55
  %61 = landingpad { ptr, i32 }
          cleanup
  %62 = extractvalue { ptr, i32 } %61, 0
  store ptr %62, ptr %11, align 8
  %63 = extractvalue { ptr, i32 } %61, 1
  store i32 %63, ptr %12, align 4
  call void @_ZNSt7__cxx1112basic_stringIcSt11char_traitsIcESaIcEED1Ev(ptr noundef nonnull align 8 dereferenceable(32) %14) #3
  br label %107

64:                                               ; preds = %50
  %65 = load i8, ptr %13, align 1
  %66 = trunc i8 %65 to i1
  store i1 %66, ptr %4, align 1
  br label %105

67:                                               ; preds = %3
  %68 = load i32, ptr %8, align 4
  %69 = icmp slt i32 %68, 0
  br i1 %69, label %70, label %85

70:                                               ; preds = %67
  %71 = load ptr, ptr %9, align 8
  %72 = getelementptr inbounds %class.Variable, ptr %71, i32 0, i32 8
  %73 = load i8, ptr %72, align 1
  %74 = trunc i8 %73 to i1
  br i1 %74, label %75, label %84

75:                                               ; preds = %70
  %76 = load ptr, ptr %9, align 8
  %77 = getelementptr inbounds %class.Variable, ptr %76, i32 0, i32 2
  call void @_ZStplIcSt11char_traitsIcESaIcEENSt7__cxx1112basic_stringIT_T0_T1_EERKS8_PKS5_(ptr dead_on_unwind writable sret(%"class.std::__cxx11::basic_string") align 8 %15, ptr noundef nonnull align 8 dereferenceable(32) %77, ptr noundef @.str.6)
  %78 = invoke noundef zeroext i1 @_Z17log_analysis_failNSt7__cxx1112basic_stringIcSt11char_traitsIcESaIcEEE(ptr noundef %15)
          to label %79 unwind label %80

79:                                               ; preds = %75
  store i1 %78, ptr %4, align 1
  call void @_ZNSt7__cxx1112basic_stringIcSt11char_traitsIcESaIcEED1Ev(ptr noundef nonnull align 8 dereferenceable(32) %15) #3
  br label %105

80:                                               ; preds = %75
  %81 = landingpad { ptr, i32 }
          cleanup
  %82 = extractvalue { ptr, i32 } %81, 0
  store ptr %82, ptr %11, align 8
  %83 = extractvalue { ptr, i32 } %81, 1
  store i32 %83, ptr %12, align 4
  call void @_ZNSt7__cxx1112basic_stringIcSt11char_traitsIcESaIcEED1Ev(ptr noundef nonnull align 8 dereferenceable(32) %15) #3
  br label %107

84:                                               ; preds = %70
  store i1 true, ptr %4, align 1
  br label %105

85:                                               ; preds = %67
  %86 = load ptr, ptr %7, align 8
  %87 = load ptr, ptr %9, align 8
  %88 = load ptr, ptr %6, align 8
  %89 = call noundef zeroext i1 @_ZN9CGContext14check_read_varEPK8VariableRKSt6vectorIPK4FactSaIS6_EE(ptr noundef nonnull align 8 dereferenceable(216) %86, ptr noundef %87, ptr noundef nonnull align 8 dereferenceable(24) %88)
  %90 = zext i1 %89 to i8
  store i8 %90, ptr %16, align 1
  %91 = load i8, ptr %16, align 1
  %92 = trunc i8 %91 to i1
  br i1 %92, label %102, label %93

93:                                               ; preds = %85
  %94 = load ptr, ptr %9, align 8
  %95 = getelementptr inbounds %class.Variable, ptr %94, i32 0, i32 2
  call void @_ZStplIcSt11char_traitsIcESaIcEENSt7__cxx1112basic_stringIT_T0_T1_EERKS8_PKS5_(ptr dead_on_unwind writable sret(%"class.std::__cxx11::basic_string") align 8 %17, ptr noundef nonnull align 8 dereferenceable(32) %95, ptr noundef @.str.7)
  %96 = invoke noundef zeroext i1 @_Z17log_analysis_failNSt7__cxx1112basic_stringIcSt11char_traitsIcESaIcEEE(ptr noundef %17)
          to label %97 unwind label %98

97:                                               ; preds = %93
  store i1 %96, ptr %4, align 1
  call void @_ZNSt7__cxx1112basic_stringIcSt11char_traitsIcESaIcEED1Ev(ptr noundef nonnull align 8 dereferenceable(32) %17) #3
  br label %105

98:                                               ; preds = %93
  %99 = landingpad { ptr, i32 }
          cleanup
  %100 = extractvalue { ptr, i32 } %99, 0
  store ptr %100, ptr %11, align 8
  %101 = extractvalue { ptr, i32 } %99, 1
  store i32 %101, ptr %12, align 4
  call void @_ZNSt7__cxx1112basic_stringIcSt11char_traitsIcESaIcEED1Ev(ptr noundef nonnull align 8 dereferenceable(32) %17) #3
  br label %107

102:                                              ; preds = %85
  %103 = load i8, ptr %16, align 1
  %104 = trunc i8 %103 to i1
  store i1 %104, ptr %4, align 1
  br label %105

105:                                              ; preds = %102, %97, %84, %79, %64, %59, %31
  %106 = load i1, ptr %4, align 1
  ret i1 %106

107:                                              ; preds = %98, %80, %60, %32
  %108 = load ptr, ptr %11, align 8
  %109 = load i32, ptr %12, align 4
  %110 = insertvalue { ptr, i32 } poison, ptr %108, 0
  %111 = insertvalue { ptr, i32 } %110, i32 %109, 1
  resume { ptr, i32 } %111
}