; Function Attrs: mustprogress uwtable
define dso_local noundef zeroext i1 @_ZNK18ExpressionVariable11visit_factsERSt6vectorIPK4FactSaIS3_EER9CGContext(ptr noundef nonnull align 8 dereferenceable(40) %0, ptr noundef nonnull align 8 dereferenceable(24) %1, ptr noundef nonnull align 8 dereferenceable(216) %2) unnamed_addr #3 align 2 personality ptr @__gxx_personality_v0 {
  %4 = alloca %"class.std::__cxx11::basic_string", align 8
  %5 = alloca %"class.std::__cxx11::basic_string", align 8
  %6 = alloca %"class.std::__cxx11::basic_string", align 8
  %7 = alloca %"class.std::__cxx11::basic_string", align 8
  %8 = getelementptr inbounds i8, ptr %0, i64 24
  %9 = load ptr, ptr %8, align 8
  %10 = getelementptr inbounds i8, ptr %9, i64 64
  %11 = load ptr, ptr %10, align 8
  %12 = tail call noundef i32 @_ZNK4Type18get_indirect_levelEv(ptr noundef nonnull align 8 dereferenceable(136) %11)
  %13 = getelementptr inbounds i8, ptr %0, i64 32
  %14 = load ptr, ptr %13, align 8
  %15 = tail call noundef i32 @_ZNK4Type18get_indirect_levelEv(ptr noundef nonnull align 8 dereferenceable(136) %14)
  %16 = sub nsw i32 %12, %15
  %17 = load ptr, ptr %8, align 8
  %18 = icmp sgt i32 %16, 0
  br i1 %18, label %19, label %42

19:                                               ; preds = %3
  %20 = tail call noundef zeroext i1 @_ZN11FactPointTo12is_valid_ptrEPK8VariableRKSt6vectorIPK4FactSaIS6_EE(ptr noundef %17, ptr noundef nonnull align 8 dereferenceable(24) %1)
  br i1 %20, label %29, label %21

21:                                               ; preds = %19
  %22 = getelementptr inbounds i8, ptr %17, i64 32
  call void @_ZNSt7__cxx1112basic_stringIcSt11char_traitsIcESaIcEEC1ERKS4_(ptr noundef nonnull align 8 dereferenceable(32) %4, ptr noundef nonnull align 8 dereferenceable(32) %22)
  %23 = invoke noundef nonnull align 8 dereferenceable(32) ptr @_ZNSt7__cxx1112basic_stringIcSt11char_traitsIcESaIcEE6appendEPKc(ptr noundef nonnull align 8 dereferenceable(32) %4, ptr noundef nonnull @.str.4)
          to label %_ZStplIcSt11char_traitsIcESaIcEENSt7__cxx1112basic_stringIT_T0_T1_EERKS8_PKS5_.exit unwind label %24

common.resume:                                    ; preds = %27, %40, %54, %64, %61, %51, %37, %24
  %.sink = phi ptr [ %4, %27 ], [ %5, %40 ], [ %6, %54 ], [ %7, %64 ], [ %7, %61 ], [ %6, %51 ], [ %5, %37 ], [ %4, %24 ]
  %common.resume.op = phi { ptr, i32 } [ %28, %27 ], [ %41, %40 ], [ %55, %54 ], [ %65, %64 ], [ %62, %61 ], [ %52, %51 ], [ %38, %37 ], [ %25, %24 ]
  call void @_ZNSt7__cxx1112basic_stringIcSt11char_traitsIcESaIcEED1Ev(ptr noundef nonnull align 8 dereferenceable(32) %.sink) #14
  resume { ptr, i32 } %common.resume.op

24:                                               ; preds = %21
  %25 = landingpad { ptr, i32 }
          cleanup
  br label %common.resume

_ZStplIcSt11char_traitsIcESaIcEENSt7__cxx1112basic_stringIT_T0_T1_EERKS8_PKS5_.exit: ; preds = %21
  %26 = invoke noundef zeroext i1 @_Z17log_analysis_failNSt7__cxx1112basic_stringIcSt11char_traitsIcESaIcEEE(ptr noundef nonnull %4)
          to label %.sink.split unwind label %27

27:                                               ; preds = %_ZStplIcSt11char_traitsIcESaIcEENSt7__cxx1112basic_stringIT_T0_T1_EERKS8_PKS5_.exit
  %28 = landingpad { ptr, i32 }
          cleanup
  br label %common.resume

29:                                               ; preds = %19
  %30 = tail call noundef zeroext i1 @_ZN9CGContext14check_read_varEPK8VariableRKSt6vectorIPK4FactSaIS6_EE(ptr noundef nonnull align 8 dereferenceable(216) %2, ptr noundef %17, ptr noundef nonnull align 8 dereferenceable(24) %1)
  br i1 %30, label %31, label %.critedge

31:                                               ; preds = %29
  %32 = tail call noundef zeroext i1 @_ZN9CGContext12read_pointedEPK18ExpressionVariableRKSt6vectorIPK4FactSaIS6_EE(ptr noundef nonnull align 8 dereferenceable(216) %2, ptr noundef nonnull %0, ptr noundef nonnull align 8 dereferenceable(24) %1)
  br i1 %32, label %33, label %.critedge

33:                                               ; preds = %31
  %34 = tail call noundef zeroext i1 @_ZN9CGContext20check_deref_volatileEPK8Variablei(ptr noundef nonnull align 8 dereferenceable(216) %2, ptr noundef %17, i32 noundef %16)
  br i1 %34, label %66, label %.critedge

.critedge:                                        ; preds = %31, %29, %33
  %35 = getelementptr inbounds i8, ptr %17, i64 32
  call void @_ZNSt7__cxx1112basic_stringIcSt11char_traitsIcESaIcEEC1ERKS4_(ptr noundef nonnull align 8 dereferenceable(32) %5, ptr noundef nonnull align 8 dereferenceable(32) %35)
  %36 = invoke noundef nonnull align 8 dereferenceable(32) ptr @_ZNSt7__cxx1112basic_stringIcSt11char_traitsIcESaIcEE6appendEPKc(ptr noundef nonnull align 8 dereferenceable(32) %5, ptr noundef nonnull @.str.5)
          to label %_ZStplIcSt11char_traitsIcESaIcEENSt7__cxx1112basic_stringIT_T0_T1_EERKS8_PKS5_.exit33 unwind label %37

37:                                               ; preds = %.critedge
  %38 = landingpad { ptr, i32 }
          cleanup
  br label %common.resume

_ZStplIcSt11char_traitsIcESaIcEENSt7__cxx1112basic_stringIT_T0_T1_EERKS8_PKS5_.exit33: ; preds = %.critedge
  %39 = invoke noundef zeroext i1 @_Z17log_analysis_failNSt7__cxx1112basic_stringIcSt11char_traitsIcESaIcEEE(ptr noundef nonnull %5)
          to label %.sink.split unwind label %40

40:                                               ; preds = %_ZStplIcSt11char_traitsIcESaIcEENSt7__cxx1112basic_stringIT_T0_T1_EERKS8_PKS5_.exit33
  %41 = landingpad { ptr, i32 }
          cleanup
  br label %common.resume

42:                                               ; preds = %3
  %43 = icmp slt i32 %16, 0
  br i1 %43, label %44, label %56

44:                                               ; preds = %42
  %45 = getelementptr inbounds i8, ptr %17, i64 83
  %46 = load i8, ptr %45, align 1
  %47 = and i8 %46, 1
  %.not = icmp eq i8 %47, 0
  br i1 %.not, label %66, label %48

48:                                               ; preds = %44
  %49 = getelementptr inbounds i8, ptr %17, i64 32
  call void @_ZNSt7__cxx1112basic_stringIcSt11char_traitsIcESaIcEEC1ERKS4_(ptr noundef nonnull align 8 dereferenceable(32) %6, ptr noundef nonnull align 8 dereferenceable(32) %49)
  %50 = invoke noundef nonnull align 8 dereferenceable(32) ptr @_ZNSt7__cxx1112basic_stringIcSt11char_traitsIcESaIcEE6appendEPKc(ptr noundef nonnull align 8 dereferenceable(32) %6, ptr noundef nonnull @.str.6)
          to label %_ZStplIcSt11char_traitsIcESaIcEENSt7__cxx1112basic_stringIT_T0_T1_EERKS8_PKS5_.exit34 unwind label %51

51:                                               ; preds = %48
  %52 = landingpad { ptr, i32 }
          cleanup
  br label %common.resume

_ZStplIcSt11char_traitsIcESaIcEENSt7__cxx1112basic_stringIT_T0_T1_EERKS8_PKS5_.exit34: ; preds = %48
  %53 = invoke noundef zeroext i1 @_Z17log_analysis_failNSt7__cxx1112basic_stringIcSt11char_traitsIcESaIcEEE(ptr noundef nonnull %6)
          to label %.sink.split unwind label %54

54:                                               ; preds = %_ZStplIcSt11char_traitsIcESaIcEENSt7__cxx1112basic_stringIT_T0_T1_EERKS8_PKS5_.exit34
  %55 = landingpad { ptr, i32 }
          cleanup
  br label %common.resume

56:                                               ; preds = %42
  %57 = tail call noundef zeroext i1 @_ZN9CGContext14check_read_varEPK8VariableRKSt6vectorIPK4FactSaIS6_EE(ptr noundef nonnull align 8 dereferenceable(216) %2, ptr noundef %17, ptr noundef nonnull align 8 dereferenceable(24) %1)
  br i1 %57, label %66, label %58

58:                                               ; preds = %56
  %59 = getelementptr inbounds i8, ptr %17, i64 32
  call void @_ZNSt7__cxx1112basic_stringIcSt11char_traitsIcESaIcEEC1ERKS4_(ptr noundef nonnull align 8 dereferenceable(32) %7, ptr noundef nonnull align 8 dereferenceable(32) %59)
  %60 = invoke noundef nonnull align 8 dereferenceable(32) ptr @_ZNSt7__cxx1112basic_stringIcSt11char_traitsIcESaIcEE6appendEPKc(ptr noundef nonnull align 8 dereferenceable(32) %7, ptr noundef nonnull @.str.7)
          to label %_ZStplIcSt11char_traitsIcESaIcEENSt7__cxx1112basic_stringIT_T0_T1_EERKS8_PKS5_.exit35 unwind label %61

61:                                               ; preds = %58
  %62 = landingpad { ptr, i32 }
          cleanup
  br label %common.resume

_ZStplIcSt11char_traitsIcESaIcEENSt7__cxx1112basic_stringIT_T0_T1_EERKS8_PKS5_.exit35: ; preds = %58
  %63 = invoke noundef zeroext i1 @_Z17log_analysis_failNSt7__cxx1112basic_stringIcSt11char_traitsIcESaIcEEE(ptr noundef nonnull %7)
          to label %.sink.split unwind label %64

64:                                               ; preds = %_ZStplIcSt11char_traitsIcESaIcEENSt7__cxx1112basic_stringIT_T0_T1_EERKS8_PKS5_.exit35
  %65 = landingpad { ptr, i32 }
          cleanup
  br label %common.resume

.sink.split:                                      ; preds = %_ZStplIcSt11char_traitsIcESaIcEENSt7__cxx1112basic_stringIT_T0_T1_EERKS8_PKS5_.exit35, %_ZStplIcSt11char_traitsIcESaIcEENSt7__cxx1112basic_stringIT_T0_T1_EERKS8_PKS5_.exit34, %_ZStplIcSt11char_traitsIcESaIcEENSt7__cxx1112basic_stringIT_T0_T1_EERKS8_PKS5_.exit33, %_ZStplIcSt11char_traitsIcESaIcEENSt7__cxx1112basic_stringIT_T0_T1_EERKS8_PKS5_.exit
  %.sink36 = phi ptr [ %4, %_ZStplIcSt11char_traitsIcESaIcEENSt7__cxx1112basic_stringIT_T0_T1_EERKS8_PKS5_.exit ], [ %5, %_ZStplIcSt11char_traitsIcESaIcEENSt7__cxx1112basic_stringIT_T0_T1_EERKS8_PKS5_.exit33 ], [ %6, %_ZStplIcSt11char_traitsIcESaIcEENSt7__cxx1112basic_stringIT_T0_T1_EERKS8_PKS5_.exit34 ], [ %7, %_ZStplIcSt11char_traitsIcESaIcEENSt7__cxx1112basic_stringIT_T0_T1_EERKS8_PKS5_.exit35 ]
  %.0.ph = phi i1 [ %26, %_ZStplIcSt11char_traitsIcESaIcEENSt7__cxx1112basic_stringIT_T0_T1_EERKS8_PKS5_.exit ], [ %39, %_ZStplIcSt11char_traitsIcESaIcEENSt7__cxx1112basic_stringIT_T0_T1_EERKS8_PKS5_.exit33 ], [ %53, %_ZStplIcSt11char_traitsIcESaIcEENSt7__cxx1112basic_stringIT_T0_T1_EERKS8_PKS5_.exit34 ], [ %63, %_ZStplIcSt11char_traitsIcESaIcEENSt7__cxx1112basic_stringIT_T0_T1_EERKS8_PKS5_.exit35 ]
  call void @_ZNSt7__cxx1112basic_stringIcSt11char_traitsIcESaIcEED1Ev(ptr noundef nonnull align 8 dereferenceable(32) %.sink36) #14
  br label %66

66:                                               ; preds = %.sink.split, %56, %44, %33
  %.0 = phi i1 [ true, %33 ], [ true, %44 ], [ true, %56 ], [ %.0.ph, %.sink.split ]
  ret i1 %.0
}